; Function Attrs: mustprogress uwtable
define void @_ZN6icu_7514SearchIteratorC2ERKNS_13UnicodeStringEPNS_13BreakIteratorE(ptr noundef nonnull align 8 dereferenceable(88) %this, ptr noundef nonnull align 8 dereferenceable(64) %text, ptr noundef %breakiter) unnamed_addr #0 align 2 personality ptr @__gxx_personality_v0 {
entry:
  store ptr getelementptr inbounds ({ [16 x ptr] }, ptr @_ZTVN6icu_7514SearchIteratorE, i64 0, i32 0, i64 2), ptr %this, align 8
  %m_breakiterator_ = getelementptr inbounds i8, ptr %this, i64 16
  store ptr %breakiter, ptr %m_breakiterator_, align 8
  %m_text_ = getelementptr inbounds i8, ptr %this, i64 24
  invoke void @_ZN6icu_7513UnicodeStringC1ERKS0_(ptr noundef nonnull align 8 dereferenceable(64) %m_text_, ptr noundef nonnull align 8 dereferenceable(64) %text)
          to label %invoke.cont unwind label %lpad

invoke.cont:                                      ; preds = %entry
  %call = invoke noalias dereferenceable_or_null(48) ptr @uprv_malloc_75(i64 noundef 48) #14
          to label %invoke.cont3 unwind label %lpad2

invoke.cont3:                                     ; preds = %invoke.cont
  %m_search_ = getelementptr inbounds i8, ptr %this, i64 8
  store ptr %call, ptr %m_search_, align 8
  %breakIter = getelementptr inbounds i8, ptr %call, i64 24
  store ptr null, ptr %breakIter, align 8
  %isOverlap = getelementptr inbounds i8, ptr %call, i64 12
  store i8 0, ptr %isOverlap, align 4
  %isCanonicalMatch = getelementptr inbounds i8, ptr %call, i64 13
  store i8 0, ptr %isCanonicalMatch, align 1
  %elementComparisonType = getelementptr inbounds i8, ptr %call, i64 14
  store i16 0, ptr %elementComparisonType, align 2
  %isForwardSearching = getelementptr inbounds i8, ptr %call, i64 40
  store i8 1, ptr %isForwardSearching, align 8
  %reset = getelementptr inbounds i8, ptr %call, i64 41
  store i8 1, ptr %reset, align 1
  %matchedIndex = getelementptr inbounds i8, ptr %call, i64 32
  store i32 -1, ptr %matchedIndex, align 8
  %matchedLength = getelementptr inbounds i8, ptr %call, i64 36
  store i32 0, ptr %matchedLength, align 4
  %fUnion.i = getelementptr inbounds i8, ptr %this, i64 32
  %0 = load i16, ptr %fUnion.i, align 8
  %conv1.i = zext i16 %0 to i32
  %and.i = and i32 %conv1.i, 17
  %tobool.not.i = icmp eq i32 %and.i, 0
  br i1 %tobool.not.i, label %if.else.i, label %invoke.cont17

if.else.i:                                        ; preds = %invoke.cont3
  %and5.i = and i32 %conv1.i, 2
  %tobool6.not.i = icmp eq i32 %and5.i, 0
  br i1 %tobool6.not.i, label %if.else9.i, label %if.then7.i

if.then7.i:                                       ; preds = %if.else.i
  %fBuffer.i = getelementptr inbounds i8, ptr %this, i64 34
  br label %invoke.cont17

if.else9.i:                                       ; preds = %if.else.i
  %fArray.i = getelementptr inbounds i8, ptr %this, i64 48
  %1 = load ptr, ptr %fArray.i, align 8
  br label %invoke.cont17

invoke.cont17:                                    ; preds = %if.else9.i, %if.then7.i, %invoke.cont3
  %retval.0.i = phi ptr [ %fBuffer.i, %if.then7.i ], [ %1, %if.else9.i ], [ null, %invoke.cont3 ]
  store ptr %retval.0.i, ptr %call, align 8
  %fUnion.i.i = getelementptr inbounds i8, ptr %text, i64 8
  %2 = load i16, ptr %fUnion.i.i, align 8
  %cmp.i.i = icmp slt i16 %2, 0
  %3 = ashr i16 %2, 5
  %shr.i.i = sext i16 %3 to i32
  %fLength.i = getelementptr inbounds i8, ptr %text, i64 12
  %4 = load i32, ptr %fLength.i, align 4
  %cond.i = select i1 %cmp.i.i, i32 %4, i32 %shr.i.i
  %textLength = getelementptr inbounds i8, ptr %call, i64 8
  store i32 %cond.i, ptr %textLength, align 8
  ret void

lpad:                                             ; preds = %entry
  %5 = landingpad { ptr, i32 }
          cleanup
  br label %ehcleanup

lpad2:                                            ; preds = %invoke.cont
  %6 = landingpad { ptr, i32 }
          cleanup
  tail call void @_ZN6icu_7513UnicodeStringD1Ev(ptr noundef nonnull align 8 dereferenceable(64) %m_text_) #15
  br label %ehcleanup

ehcleanup:                                        ; preds = %lpad2, %lpad
  %.pn = phi { ptr, i32 } [ %6, %lpad2 ], [ %5, %lpad ]
  tail call void @_ZN6icu_757UObjectD2Ev(ptr noundef nonnull align 8 dereferenceable(8) %this) #15
  resume { ptr, i32 } %.pn
}